target datalayout = "e-m:e-p270:32:32-p271:32:32-p272:64:64-i64:64-i128:128-f80:128-n8:16:32:64-S128"
target triple = "x86_64-pc-linux-gnu"

%struct.darktable_t = type { %struct.dt_codepath_t, i32, i32, ptr, ptr, ptr, ptr, ptr, ptr, ptr, ptr, ptr, ptr, ptr, ptr, ptr, ptr, ptr, ptr, ptr, ptr, ptr, ptr, ptr, ptr, ptr, ptr, ptr, ptr, ptr, [64 x %struct.dt_pthread_mutex_t], %struct.dt_pthread_mutex_t, %struct.dt_pthread_mutex_t, %struct.dt_pthread_mutex_t, %struct.dt_pthread_mutex_t, %struct.dt_pthread_mutex_t, ptr, ptr, ptr, ptr, ptr, ptr, ptr, ptr, ptr, ptr, ptr, ptr, ptr, %struct.dt_lua_state_t, ptr, double, ptr, i32, [47 x i32], i32, i32, ptr, ptr, %struct.dt_sys_resources_t, %struct.dt_backthumb_t, %struct.dt_gimp_t }
%struct.dt_codepath_t = type { i8, [3 x i8] }
%struct.dt_pthread_mutex_t = type { %union.pthread_mutex_t }
%union.pthread_mutex_t = type { %struct.__pthread_mutex_s }
%struct.__pthread_mutex_s = type { i32, i32, i32, i32, i32, i16, i16, %struct.__pthread_internal_list }
%struct.__pthread_internal_list = type { ptr, ptr }
%struct.dt_lua_state_t = type { i32 }
%struct.dt_sys_resources_t = type { i64, i64, ptr, ptr, i32 }
%struct.dt_backthumb_t = type { double, double, i32, i32, i32, i32 }
%struct.dt_gimp_t = type { i32, ptr, ptr, i32, i32 }

@darktable = external global %struct.darktable_t, align 8

; Function Attrs: nounwind uwtable
define i32 @dt_gimp_load_image(ptr noundef %0) #0 {
  %2 = alloca ptr, align 8
  %3 = alloca i32, align 4
  store ptr %0, ptr %2, align 8, !tbaa !10
  call void @llvm.lifetime.start.p0(i64 4, ptr %3) #5
  %4 = load ptr, ptr %2, align 8, !tbaa !10
  %5 = call i32 @dt_load_from_string(ptr noundef %4, i32 noundef 0, ptr noundef %3)
  store i32 %5, ptr getelementptr inbounds nuw (%struct.dt_gimp_t, ptr getelementptr inbounds nuw (%struct.darktable_t, ptr @darktable, i32 0, i32 61), i32 0, i32 3), align 8, !tbaa !87
  %6 = load i32, ptr %3, align 4, !tbaa !6
  %7 = icmp ne i32 %6, 0
  %8 = xor i1 %7, true
  %9 = zext i1 %8 to i32
  store i32 %9, ptr getelementptr inbounds nuw (%struct.dt_gimp_t, ptr getelementptr inbounds nuw (%struct.darktable_t, ptr @darktable, i32 0, i32 61), i32 0, i32 4), align 4, !tbaa !88
  %10 = load i32, ptr getelementptr inbounds nuw (%struct.dt_gimp_t, ptr getelementptr inbounds nuw (%struct.darktable_t, ptr @darktable, i32 0, i32 61), i32 0, i32 3), align 8, !tbaa !87
  call void @llvm.lifetime.end.p0(i64 4, ptr %3) #5
  ret i32 %10
}